(lp0
ccopy_reg
_reconstructor
p1
(cneuron
Neuron
p2
c__builtin__
object
p3
Ntp4
Rp5
(dp6
Vdebug
p7
I00
sVweights
p8
(lp9
F-0.7477493548977545
aF-0.5326674417257256
aF-0.3410942529076617
aF-0.5036359007166384
aF-0.3074534954112096
aF-0.4929253550795417
aF-0.5655091343508423
aF-0.3814451410973836
aF-0.18260368668091323
asVbias
p10
F-0.514634491987754
sbag1
(g2
g3
Ntp11
Rp12
(dp13
g7
I00
sg8
(lp14
F1.2924137506440472
aF1.0574882895016726
aF1.0772911486761116
aF0.2778037654865846
aF1.3299174329041719
aF1.229935447180326
aF0.6994686275973869
aF1.0754786677821215
aF0.6808025278166134
asg10
F-0.2391900937839177
sbag1
(g2
g3
Ntp15
Rp16
(dp17
g7
I00
sg8
(lp18
F0.40683271953383127
aF0.47718294462005795
aF-0.0249538796075712
aF0.2563952001135972
aF-0.07375009217412742
aF0.05416116633561047
aF0.10712843696307034
aF0.5195749553798695
aF0.1607993698283959
asg10
F-0.005779345311095767
sbag1
(g2
g3
Ntp19
Rp20
(dp21
g7
I00
sg8
(lp22
F1.308144135992677
aF1.8146342773610573
aF1.1120152946006958
aF1.464770387149919
aF0.9690542739026656
aF1.1232418895329457
aF0.9501152997269163
aF1.3895381731471141
aF1.1118452167232014
asg10
F-0.00516827442076691
sbag1
(g2
g3
Ntp23
Rp24
(dp25
g7
I00
sg8
(lp26
F-0.3677809352588135
aF-0.13580550460761887
aF-0.12452845071089513
aF0.07282908117923398
aF-0.21591282953448235
aF-0.16659960772963558
aF-0.015948914785539586
aF-0.15255946981332938
aF-0.07481624187600144
asg10
F-0.11003868617990872
sbag1
(g2
g3
Ntp27
Rp28
(dp29
g7
I00
sg8
(lp30
F1.4246715048894794
aF0.9483378645697884
aF0.790818633936345
aF0.9110020445391317
aF0.30616673068928046
aF1.0229492865953036
aF1.6011747038021014
aF1.207610800544346
aF1.1087056153803145
asg10
F-0.15007919648226453
sbag1
(g2
g3
Ntp31
Rp32
(dp33
g7
I00
sg8
(lp34
F0.9113439934822963
aF1.9037599424658498
aF2.1650372475382222
aF1.32959293981148
aF0.7827096561559491
aF0.18479191846932905
aF1.3084161971432555
aF1.8412996429617854
aF0.7486512796293824
asg10
F-0.00968244695951478
sbag1
(g2
g3
Ntp35
Rp36
(dp37
g7
I00
sg8
(lp38
F1.5367278988248194
aF0.661457988325175
aF1.4105064011482793
aF1.53104238565906
aF1.2496680705929628
aF1.229906189684191
aF0.24586172541347204
aF0.7026915944316061
aF0.1247411920358586
asg10
F-0.6779686443979693
sbag1
(g2
g3
Ntp39
Rp40
(dp41
g7
I00
sg8
(lp42
F3.3168384873962977
aF1.642730960066976
aF2.6839193686637617
aF1.5217143136639504
aF3.0002776726605433
aF3.1893204408435096
aF1.98250812638332
aF2.0727973415386396
aF2.4512656824372416
asg10
F-0.0034588110542156693
sba.04875685
aF1.0651859342731682
asg15
F-0.31177616202505964
sbsg12
I00
sbag1
(g2
g3
Ntp65
Rp66
(dp67
g7
g1
(g8
g3
Ntp68
Rp69
(dp70
g12
I00
sg13
(lp71
F-0.41547145539170316
aF1.6131105102685703
aF3.4436067615953676
aF5.1151494034145495
aF1.9692671059311335
aF1.1816437587547444
aF1.1878207897779895
aF3.109898324611178
aF-1.1143489030119293
asg15
F-0.5866424623395209
sbsg12
I00
sba.