(lp0
(lp1
(lp2
I0
aI0
aI0
aI0
aI0
aI0
aI0
aI0
aI0
aaI4
aa(lp3
(lp4
I0
aI0
aI0
aI0
aI-1
aI0
aI0
aI0
aI0
aaI0
aa(lp5
(lp6
I-1
aI0
aI0
aI0
aI1
aI0
aI0
aI0
aI0
aaI8
aa(lp7
(lp8
I1
aI0
aI0
aI0
aI-1
aI0
aI0
aI0
aI-1
aaI2
aa(lp9
(lp10
I-1
aI0
aI-1
aI0
aI1
aI0
aI0
aI0
aI1
aaI1
aa(lp11
(lp12
I1
aI-1
aI1
aI0
aI-1
aI0
aI0
aI0
aI-1
aaI7
aa(lp13
(lp14
I-1
aI1
aI-1
aI0
aI1
aI0
aI0
aI-1
aI1
aaI3
aa(lp15
(lp16
I1
aI-1
aI1
aI-1
aI-1
aI0
aI0
aI1
aI-1
aaI6
aa(lp17
(lp18
I0
aI-1
aI0
aI0
aI0
aI0
aI0
aI0
aI0
aaI4
aa(lp19
(lp20
I0
aI-1
aI-1
aI0
aI1
aI0
aI0
aI0
aI0
aaI0
aa(lp21
(lp22
I1
aI-1
aI-1
aI0
aI1
aI0
aI-1
aI0
aI0
aaI8
aa(lp23
(lp24
I0
aI0
aI0
aI0
aI0
aI0
aI0
aI-1
aI0
aaI4
aa(lp25
(lp26
I0
aI0
aI-1
aI0
aI1
aI0
aI0
aI-1
aI0
aaI0
aa(lp27
(lp28
I1
aI-1
aI-1
aI0
aI1
aI0
aI0
aI-1
aI0
aaI8
aa(lp29
(lp30
I0
aI0
aI0
aI0
aI0
aI0
aI-1
aI0
aI0
aaI4
aa(lp31
(lp32
I0
aI0
aI0
aI0
aI1
aI0
aI-1
aI0
aI-1
aaI7
aa(lp33
(lp34
I0
aI0
aI-1
aI0
aI1
aI0
aI-1
aI1
aI-1
aaI1
aa(lp35
(lp36
I0
aI0
aI0
aI0
aI0
aI-1
aI0
aI0
aI0
aaI4
aa(lp37
(lp38
I0
aI-1
aI0
aI0
aI1
aI-1
aI0
aI0
aI0
aaI2
aa(lp39
(lp40
I0
aI-1
aI1
aI0
aI1
aI-1
aI-1
aI0
aI0
aaI0
aa(lp41
(lp42
I1
aI-1
aI1
aI0
aI1
aI-1
aI-1
aI0
aI-1
aaI7
aa(lp43
(lp44
I0
aI0
aI0
aI0
aI0
aI0
aI0
aI0
aI-1
aaI4
aa(lp45
(lp46
I0
aI0
aI0
aI0
aI1
aI-1
aI0
aI0
aI-1
aaI2
aa(lp47
(lp48
I0
aI0
aI1
aI0
aI1
aI-1
aI0
aI-1
aI-1
aaI6
aa(lp49
(lp50
I0
aI-1
aI0
aI-1
aI1
aI0
aI0
aI0
aI0
aaI0
aa(lp51
(lp52
I1
aI-1
aI0
aI-1
aI1
aI-1
aI0
aI0
aI0
aaI8
aa(lp53
(lp54
I0
aI0
aI0
aI-1
aI0
aI0
aI0
aI0
aI0
aaI4
aa(lp55
(lp56
I0
aI0
aI0
aI-1
aI1
aI-1
aI0
aI0
aI0
aaI0
aa(lp57
(lp58
I1
aI0
aI0
aI-1
aI1
aI-1
aI0
aI0
aI-1
aaI2
aa(lp59
(lp60
I1
aI0
aI1
aI-1
aI1
aI-1
aI0
aI-1
aI-1
aaI1
aa(lp61
(lp62
I1
aI0
aI0
aI-1
aI-1
aI0
aI0
aI0
aI0
aaI5
aa(lp63
(lp64
I1
aI0
aI0
aI-1
aI-1
aI1
aI-1
aI0
aI0
aaI2
aa(lp65
(lp66
I1
aI0
aI1
aI-1
aI-1
aI1
aI-1
aI-1
aI0
aaI8
aa(lp67
(lp68
I-1
aI1
aI-1
aI-1
aI1
aI0
aI0
aI0
aI1
aaI7
aa(lp69
(lp70
I0
aI0
aI0
aI0
aI1
aI-1
aI0
aI-1
aI0
aaI0
aa(lp71
(lp72
I1
aI0
aI-1
aI0
aI1
aI-1
aI0
aI-1
aI0
aaI8
aa(lp73
(lp74
I0
aI0
aI0
aI0
aI1
aI0
aI0
aI0
aI-1
aaI0
aa(lp75
(lp76
I1
aI0
aI0
aI0
aI1
aI-1
aI0
aI0
aI-1
aaI2
aa(lp77
(lp78
I1
aI0
aI1
aI0
aI1
aI-1
aI-1
aI0
aI-1
aaI1
aa(lp79
(lp80
I1
aI0
aI-1
aI0
aI-1
aI0
aI0
aI0
aI0
aaI6
aa(lp81
(lp82
I1
aI0
aI-1
aI0
aI-1
aI0
aI1
aI0
aI-1
aaI3
aa(lp83
(lp84
I0
aI0
aI-1
aI0
aI1
aI0
aI0
aI0
aI0
aaI0
aa(lp85
(lp86
I1
aI0
aI-1
aI0
aI1
aI0
aI0
aI-1
aI0
aaI8
aa(lp87
(lp88
I-1
aI0
aI0
aI0
aI0
aI0
aI0
aI0
aI0
aaI4
aa(lp89
(lp90
I-1
aI0
aI0
aI0
aI1
aI0
aI0
aI0
aI-1
aaI1
aa(lp91
(lp92
I-1
aI1
aI0
aI-1
aI1
aI0
aI0
aI0
aI-1
aaI7
aa(lp93
(lp94
I0
aI-1
aI0
aI0
aI1
aI0
aI-1
aI0
aI0
aaI0
aa(lp95
(lp96
I1
aI-1
aI0
aI-1
aI1
aI0
aI-1
aI0
aI0
aaI8
aa(lp97
(lp98
I1
aI0
aI0
aI0
aI-1
aI0
aI0
aI-1
aI0
aaI1
aa(lp99
(lp100
I1
aI1
aI0
aI0
aI-1
aI0
aI-1
aI-1
aI0
aaI2
aa(lp101
(lp102
I-1
aI0
aI0
aI0
aI1
aI-1
aI1
aI0
aI0
aaI2
aa(lp103
(lp104
I-1
aI0
aI0
aI-1
aI1
aI0
aI0
aI0
aI0
aaI6
aa(lp105
(lp106
I-1
aI-1
aI0
aI-1
aI1
aI0
aI1
aI0
aI0
aaI2
aa(lp107
(lp108
I-1
aI0
aI0
aI0
aI1
aI-1
aI0
aI0
aI0
aaI6
aa(lp109
(lp110
I-1
aI0
aI0
aI0
aI1
aI-1
aI1
aI-1
aI0
aaI2
aa(lp111
(lp112
I0
aI0
aI-1
aI0
aI0
aI0
aI0
aI0
aI0
aaI4
aa(lp113
(lp114
I1
aI-1
aI-1
aI0
aI1
aI-1
aI0
aI0
aI0
aaI8
aa(lp115
(lp116
I0
aI1
aI0
aI0
aI0
aI0
aI0
aI0
aI-1
aaI4
aa(lp117
(lp118
I0
aI1
aI0
aI0
aI1
aI0
aI0
aI-1
aI-1
aaI6
aa(lp119
(lp120
I0
aI1
aI0
aI0
aI1
aI-1
aI1
aI-1
aI-1
aaI2
aa(lp121
(lp122
I0
aI0
aI0
aI0
aI0
aI-1
aI1
aI0
aI0
aaI0
aa(lp123
(lp124
I1
aI-1
aI0
aI0
aI0
aI-1
aI1
aI0
aI0
aaI3
aa(lp125
(lp126
I1
aI0
aI-1
aI-1
aI-1
aI0
aI1
aI0
aI0
aaI5
aa(lp127
(lp128
I1
aI-1
aI-1
aI-1
aI-1
aI1
aI1
aI0
aI0
aaI7
aa.